target datalayout = "e-m:e-p270:32:32-p271:32:32-p272:64:64-i64:64-i128:128-f80:128-n8:16:32:64-S128"
target triple = "x86_64-pc-linux-gnu"

@ruby_description = dso_local constant [74 x i8] c"ruby 3.5.0dev (2025-02-18T03:12:55Z :detached: 39960cd748) [x86_64-linux]\00", align 16
@rb_dynamic_description = hidden global ptr @ruby_description, align 8
@.str = private unnamed_addr constant [5 x i8] c"Ruby\00", align 1
@default_parser = internal global i32 1, align 4
@.str.20 = private unnamed_addr constant [17 x i8] c"RUBY_DESCRIPTION\00", align 1
@.str.22 = private unnamed_addr constant [12 x i8] c"DESCRIPTION\00", align 1
@ruby_mn_threads_enabled = hidden global i32 0, align 4
@define_ruby_description.desc = internal global [91 x i8] zeroinitializer, align 16
@.str.23 = private unnamed_addr constant [5 x i8] c" +MN\00", align 1
@.str.24 = private unnamed_addr constant [8 x i8] c" +PRISM\00", align 1

; Function Attrs: alwaysinline nounwind
define internal ptr @memcpy.inline(ptr noalias nonnull %0, ptr noalias nonnull %1, i64 %2) #5 {
  %4 = alloca ptr, align 8
  %5 = alloca ptr, align 8
  %6 = alloca i64, align 8
  store ptr %0, ptr %4, align 8, !tbaa !29
  store ptr %1, ptr %5, align 8, !tbaa !29
  store i64 %2, ptr %6, align 8, !tbaa !7
  %7 = load ptr, ptr %4, align 8, !tbaa !29
  %8 = load ptr, ptr %5, align 8, !tbaa !29
  %9 = load i64, ptr %6, align 8, !tbaa !7
  %10 = load ptr, ptr %4, align 8, !tbaa !29
  %11 = call i64 @llvm.objectsize.i64.p0(ptr %10, i1 false, i1 true, i1 false)
  %12 = call ptr @__memcpy_chk(ptr noundef %7, ptr noundef %8, i64 noundef %9, i64 noundef %11) #10
  ret ptr %12
}

; Function Attrs: inlinehint nounwind sspstrong uwtable
define internal void @define_ruby_const(i64 noundef %0, ptr noundef %1, i64 noundef %2, i1 noundef zeroext %3) #3 {
  %5 = alloca i64, align 8
  %6 = alloca ptr, align 8
  %7 = alloca i64, align 8
  %8 = alloca i8, align 1
  store i64 %0, ptr %5, align 8, !tbaa !7
  store ptr %1, ptr %6, align 8, !tbaa !11
  store i64 %2, ptr %7, align 8, !tbaa !7
  %9 = zext i1 %3 to i8
  store i8 %9, ptr %8, align 1, !tbaa !14
  %10 = load i8, ptr %8, align 1, !tbaa !14, !range !16, !noundef !17
  %11 = trunc i8 %10 to i1
  br i1 %11, label %12, label %17

12:                                               ; preds = %4
  %13 = load ptr, ptr %6, align 8, !tbaa !11
  %14 = load i64, ptr %7, align 8, !tbaa !7
  call void @rb_define_global_const(ptr noundef %13, i64 noundef %14)
  %15 = load ptr, ptr %6, align 8, !tbaa !11
  %16 = getelementptr i8, ptr %15, i64 5
  store ptr %16, ptr %6, align 8, !tbaa !11
  br label %17

17:                                               ; preds = %12, %4
  %18 = load i64, ptr %5, align 8, !tbaa !7
  %19 = load ptr, ptr %6, align 8, !tbaa !11
  %20 = load i64, ptr %7, align 8, !tbaa !7
  call void @rb_define_const(i64 noundef %18, ptr noundef %19, i64 noundef %20)
  ret void
}

; Function Attrs: nounwind sspstrong uwtable
define hidden i32 @rb_ruby_default_parser() #0 {
  %1 = load i32, ptr @default_parser, align 4, !tbaa !18
  ret i32 %1
}

; Function Attrs: inlinehint nounwind sspstrong memory(argmem: readwrite, inaccessiblemem: readwrite) uwtable
define internal nonnull ptr @ruby_nonempty_memcpy(ptr noundef nonnull %0, ptr noundef %1, i64 noundef %2) #4 {
  %4 = alloca ptr, align 8
  %5 = alloca ptr, align 8
  %6 = alloca ptr, align 8
  %7 = alloca i64, align 8
  store ptr %0, ptr %5, align 8, !tbaa !29
  store ptr %1, ptr %6, align 8, !tbaa !29
  store i64 %2, ptr %7, align 8, !tbaa !7
  %8 = load i64, ptr %7, align 8, !tbaa !7
  %9 = icmp ne i64 %8, 0
  br i1 %9, label %10, label %15

10:                                               ; preds = %3
  %11 = load ptr, ptr %5, align 8, !tbaa !29
  %12 = load ptr, ptr %6, align 8, !tbaa !29
  %13 = load i64, ptr %7, align 8, !tbaa !7
  %14 = call ptr @memcpy.inline(ptr noundef %11, ptr noundef %12, i64 noundef %13) #10
  store ptr %14, ptr %4, align 8
  br label %17

15:                                               ; preds = %3
  %16 = load ptr, ptr %5, align 8, !tbaa !29
  store ptr %16, ptr %4, align 8
  br label %17

17:                                               ; preds = %15, %10
  %18 = load ptr, ptr %4, align 8
  ret ptr %18
}

; Function Attrs: nounwind sspstrong uwtable
define internal void @define_ruby_description(ptr noundef %0) #0 {
  %2 = alloca ptr, align 8
  %3 = alloca i32, align 4
  %4 = alloca i64, align 8
  %5 = alloca i64, align 8
  store ptr %0, ptr %2, align 8, !tbaa !11
  call void @llvm.lifetime.start.p0(i64 4, ptr %3) #10
  store i32 58, ptr %3, align 4, !tbaa !18
  %6 = load i32, ptr %3, align 4, !tbaa !18
  %7 = sext i32 %6 to i64
  %8 = call nonnull ptr @ruby_nonempty_memcpy(ptr noundef @define_ruby_description.desc, ptr noundef @ruby_description, i64 noundef %7) #11
  %9 = load ptr, ptr %2, align 8, !tbaa !11
  %10 = load i8, ptr %9, align 1, !tbaa !22
  %11 = icmp ne i8 %10, 0
  br i1 %11, label %12, label %24

12:                                               ; preds = %1
  %13 = load i32, ptr %3, align 4, !tbaa !18
  %14 = sext i32 %13 to i64
  %15 = getelementptr i8, ptr @define_ruby_description.desc, i64 %14
  %16 = load ptr, ptr %2, align 8, !tbaa !11
  %17 = load i32, ptr %3, align 4, !tbaa !18
  %18 = sext i32 %17 to i64
  %19 = sub i64 91, %18
  %20 = call i64 @strlcpy(ptr noundef %15, ptr noundef %16, i64 noundef %19)
  %21 = trunc i64 %20 to i32
  %22 = load i32, ptr %3, align 4, !tbaa !18
  %23 = add i32 %22, %21
  store i32 %23, ptr %3, align 4, !tbaa !18
  br label %24

24:                                               ; preds = %12, %1
  %25 = load i32, ptr @ruby_mn_threads_enabled, align 4, !tbaa !18
  %26 = icmp ne i32 %25, 0
  br i1 %26, label %27, label %38

27:                                               ; preds = %24
  %28 = load i32, ptr %3, align 4, !tbaa !18
  %29 = sext i32 %28 to i64
  %30 = getelementptr i8, ptr @define_ruby_description.desc, i64 %29
  %31 = load i32, ptr %3, align 4, !tbaa !18
  %32 = sext i32 %31 to i64
  %33 = sub i64 91, %32
  %34 = call i64 @strlcpy(ptr noundef %30, ptr noundef @.str.23, i64 noundef %33)
  %35 = trunc i64 %34 to i32
  %36 = load i32, ptr %3, align 4, !tbaa !18
  %37 = add i32 %36, %35
  store i32 %37, ptr %3, align 4, !tbaa !18
  br label %38

38:                                               ; preds = %27, %24
  %39 = call i32 @rb_ruby_default_parser()
  %40 = icmp eq i32 %39, 1
  br i1 %40, label %41, label %52

41:                                               ; preds = %38
  %42 = load i32, ptr %3, align 4, !tbaa !18
  %43 = sext i32 %42 to i64
  %44 = getelementptr i8, ptr @define_ruby_description.desc, i64 %43
  %45 = load i32, ptr %3, align 4, !tbaa !18
  %46 = sext i32 %45 to i64
  %47 = sub i64 91, %46
  %48 = call i64 @strlcpy(ptr noundef %44, ptr noundef @.str.24, i64 noundef %47)
  %49 = trunc i64 %48 to i32
  %50 = load i32, ptr %3, align 4, !tbaa !18
  %51 = add i32 %50, %49
  store i32 %51, ptr %3, align 4, !tbaa !18
  br label %52

52:                                               ; preds = %41, %38
  %53 = load i32, ptr %3, align 4, !tbaa !18
  %54 = sext i32 %53 to i64
  %55 = getelementptr i8, ptr @define_ruby_description.desc, i64 %54
  %56 = load i32, ptr %3, align 4, !tbaa !18
  %57 = sext i32 %56 to i64
  %58 = sub i64 91, %57
  %59 = call i64 @strlcpy(ptr noundef %55, ptr noundef getelementptr (i8, ptr @ruby_description, i64 58), i64 noundef %58)
  %60 = trunc i64 %59 to i32
  %61 = load i32, ptr %3, align 4, !tbaa !18
  %62 = add i32 %61, %60
  store i32 %62, ptr %3, align 4, !tbaa !18
  call void @llvm.lifetime.start.p0(i64 8, ptr %4) #10
  %63 = call i64 @rb_path2class(ptr noundef @.str)
  store i64 %63, ptr %4, align 8, !tbaa !7
  call void @llvm.lifetime.start.p0(i64 8, ptr %5) #10
  %64 = load i32, ptr %3, align 4, !tbaa !18
  %65 = sext i32 %64 to i64
  %66 = call i64 @rb_usascii_str_new_static(ptr noundef @define_ruby_description.desc, i64 noundef %65)
  %67 = call i64 @rb_obj_freeze(i64 noundef %66)
  store i64 %67, ptr %5, align 8, !tbaa !7
  store ptr @define_ruby_description.desc, ptr @rb_dynamic_description, align 8, !tbaa !11
  %68 = load i64, ptr %4, align 8, !tbaa !7
  %69 = load i64, ptr %4, align 8, !tbaa !7
  %70 = load i64, ptr %4, align 8, !tbaa !7
  %71 = icmp eq i64 %69, %70
  %72 = select i1 %71, ptr @.str.20, ptr @.str.22
  %73 = load i64, ptr %5, align 8, !tbaa !7
  %74 = load i64, ptr %4, align 8, !tbaa !7
  %75 = load i64, ptr %4, align 8, !tbaa !7
  %76 = icmp eq i64 %74, %75
  call void @define_ruby_const(i64 noundef %68, ptr noundef %72, i64 noundef %73, i1 noundef zeroext %76)
  call void @llvm.lifetime.end.p0(i64 8, ptr %5) #10
  call void @llvm.lifetime.end.p0(i64 8, ptr %4) #10
  call void @llvm.lifetime.end.p0(i64 4, ptr %3) #10
  ret void
}