; Function Attrs: nounwind sspstrong uwtable
define internal fastcc void @define_ruby_description(ptr noundef %0) unnamed_addr #0 {
  tail call void @llvm.memcpy.p0.p0.i64(ptr noundef nonnull align 16 dereferenceable(58) @define_ruby_description.desc, ptr noundef nonnull align 16 dereferenceable(58) @ruby_description, i64 noundef 58, i1 noundef false) #8
  %2 = load i8, ptr %0, align 1, !tbaa !11
  %.not = icmp eq i8 %2, 0
  br i1 %.not, label %7, label %3

3:                                                ; preds = %1
  %4 = tail call i64 @strlcpy(ptr noundef nonnull dereferenceable(1) getelementptr inbounds nuw (i8, ptr @define_ruby_description.desc, i64 58), ptr noundef nonnull dereferenceable(1) %0, i64 noundef 33) #8
  %5 = trunc i64 %4 to i32
  %6 = add i32 %5, 58
  br label %7

7:                                                ; preds = %3, %1
  %.0 = phi i32 [ %6, %3 ], [ 58, %1 ]
  %8 = load i32, ptr @ruby_mn_threads_enabled, align 4, !tbaa !7
  %.not21 = icmp eq i32 %8, 0
  br i1 %.not21, label %16, label %9

9:                                                ; preds = %7
  %10 = sext i32 %.0 to i64
  %11 = getelementptr i8, ptr @define_ruby_description.desc, i64 %10
  %12 = sub nsw i64 91, %10
  %13 = tail call i64 @strlcpy(ptr noundef %11, ptr noundef nonnull dereferenceable(1) @.str.23, i64 noundef %12) #8
  %14 = trunc i64 %13 to i32
  %15 = add i32 %.0, %14
  br label %16

16:                                               ; preds = %9, %7
  %.1 = phi i32 [ %15, %9 ], [ %.0, %7 ]
  %17 = load i32, ptr @default_parser, align 4, !tbaa !7
  %18 = icmp eq i32 %17, 1
  br i1 %18, label %19, label %26

19:                                               ; preds = %16
  %20 = sext i32 %.1 to i64
  %21 = getelementptr i8, ptr @define_ruby_description.desc, i64 %20
  %22 = sub nsw i64 91, %20
  %23 = tail call i64 @strlcpy(ptr noundef %21, ptr noundef nonnull dereferenceable(1) @.str.24, i64 noundef %22) #8
  %24 = trunc i64 %23 to i32
  %25 = add i32 %.1, %24
  br label %26

26:                                               ; preds = %19, %16
  %.2 = phi i32 [ %25, %19 ], [ %.1, %16 ]
  %27 = sext i32 %.2 to i64
  %28 = getelementptr i8, ptr @define_ruby_description.desc, i64 %27
  %29 = sub nsw i64 91, %27
  %30 = tail call i64 @strlcpy(ptr noundef %28, ptr noundef nonnull dereferenceable(1) getelementptr inbounds nuw (i8, ptr @ruby_description, i64 58), i64 noundef %29) #8
  %31 = trunc i64 %30 to i32
  %32 = add i32 %.2, %31
  %33 = tail call i64 @rb_path2class(ptr noundef nonnull @.str) #8
  %34 = sext i32 %32 to i64
  %35 = tail call i64 @rb_usascii_str_new_static(ptr noundef nonnull @define_ruby_description.desc, i64 noundef %34) #8
  %36 = tail call i64 @rb_obj_freeze(i64 noundef %35) #8
  store ptr @define_ruby_description.desc, ptr @rb_dynamic_description, align 8, !tbaa !12
  tail call void @rb_define_global_const(ptr noundef nonnull @.str.20, i64 noundef %36) #8
  tail call void @rb_define_const(i64 noundef %33, ptr noundef nonnull getelementptr inbounds nuw (i8, ptr @.str.20, i64 5), i64 noundef %36) #8
  ret void
}